(lp0
(lp1
(lp2
(lp3
F0.06599998474121094
aF0.06599998474121094
aF0.06599998474121094
aF0.06599998474121094
aF0.06999993324279785
aF0.06599998474121094
aF0.06600022315979004
aF0.06599998474121094
aF0.06599998474121094
aF0.1659998893737793
aF0.06599998474121094
aF0.0989999771118164
aF0.26400017738342285
aF0.23099994659423828
aF0.23099994659423828
aF0.1979999542236328
aF0.23099994659423828
aF0.23200011253356934
aF0.23099994659423828
aF0.23099994659423828
aF0.19800019264221191
aF0.19899988174438477
aF0.2969999313354492
aF0.23200011253356934
aF0.25
aF0.1979999542236328
aF0.24399995803833008
aF0.1979999542236328
aF0.23100018501281738
aF0.2329998016357422
aF0.2390000820159912
aF0.23099994659423828
aF0.2369999885559082
aF0.19800019264221191
aF0.23099994659423828
aF0.23099994659423828
aF0.23099994659423828
aF0.23200011253356934
aF0.21599984169006348
aF0.23100018501281738
aF0.23199987411499023
aF0.23099994659423828
aF0.23800015449523926
aF0.23099994659423828
aF0.1979999542236328
aF0.23099994659423828
aF0.23100018501281738
aF0.23099994659423828
aF0.23099994659423828
aF0.23099994659423828
aF0.23399996757507324
aaaa(lp4
(lp5
I-1
aaa(lp6
(lp7
I249
aaa(lp8
(lp9
I72800
aaa(lp10
(lp11
F7.279999999999999
aaa(lp12
(lp13
F17.16
aaa(lp14
(lp15
F0.2969999313354492
aaa(lp16
(lp17
F0.06599998474121094
aaa(lp18
(lp19
cnumpy.core.multiarray
scalar
p20
(cnumpy
dtype
p21
(S'f8'
p22
I0
I1
tp23
Rp24
(I3
S'<'
p25
NNNI-1
I-1
I0
tp26
bS'\xa1\xa0\xa0\xa0J\xbb\xc8?'
p27
tp28
Rp29
aaa(lp30
(lp31
g20
(g24
S'\x13\x97__jT\xb1?'
p32
tp33
Rp34
aaa.