(lp0
(lp1
(lp2
(lp3
F0.06599998474121094
aF0.06599998474121094
aF0.06599998474121094
aF0.06599998474121094
aF0.06599998474121094
aF0.06599998474121094
aF0.06599998474121094
aF0.0989999771118164
aF0.13200020790100098
aF0.0989999771118164
aF0.13199996948242188
aF0.0989999771118164
aF0.13199996948242188
aF0.0989999771118164
aF0.0989999771118164
aF0.13199996948242188
aF0.0989999771118164
aF0.13200020790100098
aF0.0989999771118164
aF0.13199996948242188
aF0.0989999771118164
aF0.13199996948242188
aF0.0989999771118164
aF0.13199996948242188
aF0.0989999771118164
aF0.0989999771118164
aF0.13200020790100098
aF0.0989999771118164
aF0.13199996948242188
aF0.0989999771118164
aF0.13199996948242188
aF0.0989999771118164
aF0.13199996948242188
aF0.0989999771118164
aF0.0989999771118164
aF0.13200020790100098
aF0.0989999771118164
aF0.13199996948242188
aF0.0989999771118164
aF0.13199996948242188
aF0.0989999771118164
aF0.26399993896484375
aF0.19800019264221191
aF0.0989999771118164
aF0.06599998474121094
aF0.06599998474121094
aF0.06599998474121094
aF0.06599998474121094
aF0.0989999771118164
aF0.0989999771118164
aF0.13199996948242188
aF0.0989999771118164
aF0.13199996948242188
aF0.09900021553039551
aF0.0989999771118164
aF0.13199996948242188
aF0.0989999771118164
aF0.13199996948242188
aF0.0989999771118164
aF0.13199996948242188
aF0.0989999771118164
aF0.13199996948242188
aF0.09900021553039551
aF0.13199996948242188
aF0.0989999771118164
aF0.13199996948242188
aF0.0989999771118164
aF0.0989999771118164
aF0.13199996948242188
aF0.0989999771118164
aF0.13199996948242188
aF0.09900021553039551
aF0.13199996948242188
aF0.0989999771118164
aF0.13199996948242188
aF0.0989999771118164
aF0.13199996948242188
aF0.09999990463256836
aF0.09900021553039551
aF0.13199996948242188
aF0.0989999771118164
aF0.13199996948242188
aF0.0989999771118164
aF0.13199996948242188
aF0.0989999771118164
aF0.13199996948242188
aF0.0989999771118164
aF0.13200020790100098
aF0.0989999771118164
aF0.0989999771118164
aF0.13199996948242188
aF0.0989999771118164
aF0.13199996948242188
aF0.0989999771118164
aF0.13199996948242188
aF0.0989999771118164
aF0.13200020790100098
aF0.0989999771118164
aF0.13199996948242188
aF0.0989999771118164
aF0.0989999771118164
aF0.13199996948242188
aF0.0989999771118164
aF0.13199996948242188
aF0.0989999771118164
aF0.13200020790100098
aF0.0989999771118164
aF0.13199996948242188
aF0.0989999771118164
aF0.13199996948242188
aF0.0989999771118164
aF0.0989999771118164
aF0.13199996948242188
aF0.0989999771118164
aF0.13200020790100098
aF0.0989999771118164
aF0.13199996948242188
aF0.0989999771118164
aF0.13199996948242188
aF0.0989999771118164
aF0.0989999771118164
aF0.13199996948242188
aF0.0989999771118164
aF0.13200020790100098
aF0.0989999771118164
aF0.13199996948242188
aF0.0989999771118164
aF0.13199996948242188
aF0.0989999771118164
aF0.13199996948242188
aF0.0989999771118164
aF0.0989999771118164
aF0.13200020790100098
aF0.23099994659423828
aF0.1979999542236328
aF0.0989999771118164
aF0.06599998474121094
aF0.06599998474121094
aF0.06599998474121094
aF0.06599998474121094
aF0.13199996948242188
aF0.09900021553039551
aF0.06599998474121094
aF0.16499996185302734
aF0.0989999771118164
aF0.13199996948242188
aF0.0989999771118164
aF0.13199996948242188
aF0.0989999771118164
aF0.13199996948242188
aF0.09900021553039551
aF0.13199996948242188
aF0.0989999771118164
aF0.0989999771118164
aF0.13199996948242188
aF0.0989999771118164
aF0.13199996948242188
aF0.0989999771118164
aF0.13199996948242188
aF0.09900021553039551
aF0.13199996948242188
aF0.0989999771118164
aF0.13199996948242188
aF0.0989999771118164
aF0.0989999771118164
aF0.13199996948242188
aF0.0989999771118164
aF0.13199996948242188
aF0.09900021553039551
aF0.13199996948242188
aF0.0989999771118164
aF0.13199996948242188
aF0.0989999771118164
aF0.13199996948242188
aF0.0989999771118164
aF0.0989999771118164
aF0.13199996948242188
aF0.09900021553039551
aF0.13199996948242188
aF0.0989999771118164
aF0.13199996948242188
aF0.0989999771118164
aF0.13199996948242188
aF0.0989999771118164
aF0.0989999771118164
aF0.13199996948242188
aF0.09900021553039551
aF0.13199996948242188
aF0.0989999771118164
aF0.13199996948242188
aF0.0989999771118164
aF0.13199996948242188
aF0.0989999771118164
aF0.13199996948242188
aF0.0989999771118164
aF0.09900021553039551
aF0.13199996948242188
aF0.0989999771118164
aF0.13199996948242188
aF0.0989999771118164
aF0.13199996948242188
aF0.0989999771118164
aF0.13199996948242188
aF0.0989999771118164
aF0.13200020790100098
aF0.0989999771118164
aF0.0989999771118164
aF0.13199996948242188
aF0.0989999771118164
aF0.13199996948242188
aF0.0989999771118164
aF0.13199996948242188
aF0.0989999771118164
aF0.13200020790100098
aF0.0989999771118164
aF0.0989999771118164
aF0.13199996948242188
aF0.0989999771118164
aF0.16499996185302734
aF0.06599998474121094
aF0.13199996948242188
aF0.0989999771118164
aF0.13200020790100098
aF0.0989999771118164
aF0.13199996948242188
aF0.1979999542236328
aF0.23099994659423828
aF0.0989999771118164
aF0.06599998474121094
aF0.06700015068054199
aF0.06599998474121094
aF0.06599998474121094
aF0.0989999771118164
aF0.13199996948242188
aF0.0989999771118164
aF0.13199996948242188
aF0.0989999771118164
aF0.13199996948242188
aF0.09900021553039551
aF0.0989999771118164
aF0.13199996948242188
aF0.0989999771118164
aF0.13199996948242188
aF0.0989999771118164
aF0.13199996948242188
aF0.0989999771118164
aF0.13199996948242188
aF0.09900021553039551
aF0.0989999771118164
aF0.13199996948242188
aF0.0989999771118164
aF0.13199996948242188
aF0.0989999771118164
aF0.13199996948242188
aF0.0989999771118164
aF0.13199996948242188
aF0.09900021553039551
aF0.13199996948242188
aF0.0989999771118164
aF0.0989999771118164
aF0.13199996948242188
aF0.0989999771118164
aF0.13199996948242188
aF0.0989999771118164
aF0.13199996948242188
aaaa(lp4
(lp5
I2
aaa(lp6
(lp7
I641
aaa(lp8
(lp9
I372400
aaa(lp10
(lp11
F12.413333333333332
aaa(lp12
(lp13
F29.26
aaa(lp14
(lp15
F0.26399993896484375
aaa(lp16
(lp17
F0.06599998474121094
aaa(lp18
(lp19
cnumpy.core.multiarray
scalar
p20
(cnumpy
dtype
p21
(S'f8'
p22
I0
I1
tp23
Rp24
(I3
S'<'
p25
NNNI-1
I-1
I0
tp26
bS'3333G\xda\xbc?'
p27
tp28
Rp29
aaa(lp30
(lp31
g20
(g24
S'>\xb5\x0ez\x10>\x9b?'
p32
tp33
Rp34
aaa.