(lp0
(lp1
(lp2
(lp3
F0.0989999771118164
aF0.06599998474121094
aF0.06600022315979004
aF0.06599998474121094
aF0.06599998474121094
aF0.06599998474121094
aF0.06599998474121094
aF0.06599998474121094
aF0.06599998474121094
aF0.06599998474121094
aF0.06599998474121094
aF0.06599998474121094
aF0.06599998474121094
aF0.06599998474121094
aF0.06700015068054199
aF0.06599998474121094
aF0.06599998474121094
aF0.06599998474121094
aF0.16499996185302734
aF0.1979999542236328
aF0.23099994659423828
aF0.23100018501281738
aF0.23099994659423828
aF0.23099994659423828
aF0.23099994659423828
aF0.23099994659423828
aF0.23100018501281738
aF0.1979999542236328
aF0.26399993896484375
aF0.1979999542236328
aF0.23100018501281738
aF0.2369999885559082
aF0.2969999313354492
aF0.26399993896484375
aF0.13700008392333984
aF0.23099994659423828
aF0.1979999542236328
aF0.23099994659423828
aF0.23200011253356934
aF0.23099994659423828
aF0.24000000953674316
aF0.23099994659423828
aF0.23200011253356934
aF0.20099997520446777
aF0.23099994659423828
aF0.23099994659423828
aF0.2970001697540283
aF0.1659998893737793
aF0.23099994659423828
aF0.23100018501281738
aF0.23099994659423828
aF0.23099994659423828
aF0.1979999542236328
aF0.23100018501281738
aF0.23099994659423828
aF0.23099994659423828
aF0.23099994659423828
aF0.23099994659423828
aF0.2350001335144043
aF0.23099994659423828
aF0.24500012397766113
aF0.1979999542236328
aF0.23099994659423828
aF0.23099994659423828
aF0.23099994659423828
aF0.23100018501281738
aF0.23199987411499023
aF0.23099994659423828
aF0.20100021362304688
aF0.23099994659423828
aF0.23199987411499023
aF0.23099994659423828
aF0.23100018501281738
aF0.23099994659423828
aF0.24399995803833008
aF0.1979999542236328
aF0.24500012397766113
aF0.23099994659423828
aaaa(lp4
(lp5
I1
aaa(lp6
(lp7
I372
aaa(lp8
(lp9
I110600
aaa(lp10
(lp11
F7.373333333333333
aaa(lp12
(lp13
F17.380000000000003
aaa(lp14
(lp15
F0.2970001697540283
aaa(lp16
(lp17
F0.06599998474121094
aaa(lp18
(lp19
cnumpy.core.multiarray
scalar
p20
(cnumpy
dtype
p21
(S'f8'
p22
I0
I1
tp23
Rp24
(I3
S'<'
p25
NNNI-1
I-1
I0
tp26
bS'\xe6[\xbe\xe5GU\xc8?'
p27
tp28
Rp29
aaa(lp30
(lp31
g20
(g24
S'\xcc\xf24n\x83\r\xb2?'
p32
tp33
Rp34
aaa.