(lp0
(lp1
(lp2
(lp3
F0.06599998474121094
aF0.0690000057220459
aF0.11300015449523926
aF0.06599998474121094
aF0.06599998474121094
aF0.06599998474121094
aF0.06599998474121094
aF0.06599998474121094
aF0.06599998474121094
aF0.06599998474121094
aF0.06599998474121094
aF0.06699991226196289
aF0.06600022315979004
aF0.06599998474121094
aF0.06699991226196289
aF0.06599998474121094
aF0.06599998474121094
aF0.13199996948242188
aF0.23099994659423828
aF0.19800019264221191
aF0.23099994659423828
aF0.23099994659423828
aF0.23099994659423828
aF0.23100018501281738
aF0.2329998016357422
aF0.23100018501281738
aF0.23099994659423828
aF0.23099994659423828
aF0.21799993515014648
aF0.23100018501281738
aF0.2519998550415039
aF0.23099994659423828
aF0.4350001811981201
aF0.23099994659423828
aF0.23099994659423828
aF0.26399993896484375
aF0.1979999542236328
aF0.23100018501281738
aF0.23099994659423828
aF0.1979999542236328
aF0.23099994659423828
aF0.26600003242492676
aF0.1979999542236328
aF0.23100018501281738
aF0.23099994659423828
aF0.23099994659423828
aF0.23099994659423828
aF0.23100018501281738
aF0.23099994659423828
aF0.1979999542236328
aF0.23399996757507324
aF0.23099994659423828
aF0.23100018501281738
aF0.2349998950958252
aF0.23099994659423828
aF0.23099994659423828
aF0.23100018501281738
aF0.21199989318847656
aF0.23099994659423828
aF0.2330000400543213
aF0.23099994659423828
aF0.23200011253356934
aF0.1979999542236328
aF0.23099994659423828
aF0.24399995803833008
aF0.23100018501281738
aF0.20599985122680664
aF0.23200011253356934
aF0.23199987411499023
aF0.23100018501281738
aF0.23599982261657715
aF0.23100018501281738
aF0.2329998016357422
aF0.2330000400543213
aF0.2050001621246338
aF0.2649998664855957
aaaa(lp4
(lp5
I2
aaa(lp6
(lp7
I369
aaa(lp8
(lp9
I107800
aaa(lp10
(lp11
F7.1866666666666665
aaa(lp12
(lp13
F16.94
aaa(lp14
(lp15
F0.4350001811981201
aaa(lp16
(lp17
F0.06599998474121094
aaa(lp18
(lp19
cnumpy.core.multiarray
scalar
p20
(cnumpy
dtype
p21
(S'f8'
p22
I0
I1
tp23
Rp24
(I3
S'<'
p25
NNNI-1
I-1
I0
tp26
bS'\xd8P^\xc3\x19\xe7\xc8?'
p27
tp28
Rp29
aaa(lp30
(lp31
g20
(g24
S'\xcaj\xe5\x95\x92\xd2\xb2?'
p32
tp33
Rp34
aaa.