(lp0
(lp1
(lp2
(lp3
F0.06800007820129395
aF0.06800007820129395
aF0.06799983978271484
aF0.06800007820129395
aF0.06800007820129395
aF0.07499980926513672
aF0.10100007057189941
aF0.06800007820129395
aF0.06800007820129395
aF0.06799983978271484
aF0.06800007820129395
aF0.0690000057220459
aF0.06800007820129395
aF0.06799983978271484
aF0.0690000057220459
aF0.0690000057220459
aF0.06800007820129395
aF0.10100007057189941
aF0.2329998016357422
aF0.24300003051757812
aF0.2330000400543213
aF0.21300005912780762
aF0.2330000400543213
aF0.20399999618530273
aF0.19999980926513672
aF0.26600003242492676
aF0.24399995803833008
aF0.2330000400543213
aF0.20000004768371582
aF0.23399996757507324
aF0.2330000400543213
aF0.2330000400543213
aF0.2330000400543213
aF0.2330000400543213
aF0.2329998016357422
aF0.20000004768371582
aF0.2330000400543213
aF0.3320000171661377
aF0.14299988746643066
aF0.21600008010864258
aF0.2330000400543213
aF0.23399996757507324
aF0.2090001106262207
aF0.2329998016357422
aF0.2330000400543213
aF0.2330000400543213
aF0.23600006103515625
aF0.20000004768371582
aF0.24599981307983398
aF0.2330000400543213
aF0.2050001621246338
aF0.2329998016357422
aF0.2330000400543213
aF0.2330000400543213
aF0.24500012397766113
aF0.19999980926513672
aF0.25
aF0.20000004768371582
aF0.24000000953674316
aF0.2330000400543213
aF0.2349998950958252
aF0.20000004768371582
aF0.2330000400543213
aF0.2330000400543213
aF0.2330000400543213
aF0.2330000400543213
aF0.2329998016357422
aF0.20300006866455078
aF0.2330000400543213
aF0.20600008964538574
aF0.19999980926513672
aF0.2740001678466797
aF0.23399996757507324
aF0.23599982261657715
aF0.23400020599365234
aF0.2329998016357422
aF0.20100021362304688
aaaa(lp4
(lp5
I1
aaa(lp6
(lp7
I365
aaa(lp8
(lp9
I109200
aaa(lp10
(lp11
F7.28
aaa(lp12
(lp13
F17.16
aaa(lp14
(lp15
F0.3320000171661377
aaa(lp16
(lp17
F0.06799983978271484
aaa(lp18
(lp19
cnumpy.core.multiarray
scalar
p20
(cnumpy
dtype
p21
(S'f8'
p22
I0
I1
tp23
Rp24
(I3
S'<'
p25
NNNI-1
I-1
I0
tp26
bS'\xc1\xde15(\x81\xc8?'
p27
tp28
Rp29
aaa(lp30
(lp31
g20
(g24
S'[\x96\x88\x85&\xbf\xb1?'
p32
tp33
Rp34
aaa.