(lp0
(lp1
(lp2
(lp3
F0.0989999771118164
aF0.06599998474121094
aF0.06599998474121094
aF0.06599998474121094
aF0.06599998474121094
aF0.06599998474121094
aF0.06599998474121094
aF0.06599998474121094
aF0.06599998474121094
aF0.06599998474121094
aF0.06599998474121094
aF0.06599998474121094
aF0.06599998474121094
aF0.0989999771118164
aF0.06600022315979004
aF0.06599998474121094
aF0.06599998474121094
aF0.06599998474121094
aF0.0989999771118164
aF0.0989999771118164
aF0.0989999771118164
aF0.13199996948242188
aF0.0989999771118164
aF0.13199996948242188
aF0.0989999771118164
aF0.16500020027160645
aF0.06599998474121094
aF0.13299989700317383
aF0.0989999771118164
aF0.13199996948242188
aF0.0989999771118164
aF0.09900021553039551
aF0.1419999599456787
aF0.0989999771118164
aF0.0989999771118164
aF0.13199996948242188
aF0.09999990463256836
aF0.13200020790100098
aF0.09999990463256836
aF0.13199996948242188
aF0.0989999771118164
aF0.13199996948242188
aF0.0989999771118164
aF0.10000014305114746
aF0.13199996948242188
aF0.0989999771118164
aF0.13199996948242188
aF0.0989999771118164
aF0.13199996948242188
aF0.0989999771118164
aF0.13300013542175293
aF0.0989999771118164
aF0.0989999771118164
aF0.2969999313354492
aF0.19800019264221191
aF0.0989999771118164
aF0.06599998474121094
aF0.06599998474121094
aF0.06599998474121094
aF0.06599998474121094
aF0.06599998474121094
aF0.13199996948242188
aF0.0989999771118164
aF0.13199996948242188
aF0.0989999771118164
aF0.09900021553039551
aF0.1419999599456787
aF0.0989999771118164
aF0.0989999771118164
aF0.13199996948242188
aF0.0989999771118164
aF0.16499996185302734
aF0.06599998474121094
aF0.13400006294250488
aF0.09999990463256836
aF0.13200020790100098
aF0.0989999771118164
aF0.0989999771118164
aF0.13199996948242188
aF0.0989999771118164
aF0.13199996948242188
aF0.0989999771118164
aF0.13300013542175293
aF0.0989999771118164
aF0.0989999771118164
aF0.13199996948242188
aF0.13199996948242188
aF0.16499996185302734
aF0.06599998474121094
aF0.0989999771118164
aF0.09900021553039551
aF0.16499996185302734
aF0.06599998474121094
aF0.16499996185302734
aF0.06599998474121094
aF0.13199996948242188
aF0.0989999771118164
aF0.13199996948242188
aF0.0989999771118164
aF0.09900021553039551
aF0.13199996948242188
aF0.13199996948242188
aF0.0989999771118164
aF0.09999990463256836
aF0.1400001049041748
aF0.0989999771118164
aF0.10100007057189941
aF0.13199996948242188
aF0.10399985313415527
aF0.09900021553039551
aF0.13199996948242188
aF0.0989999771118164
aF0.13199996948242188
aF0.0989999771118164
aF0.13199996948242188
aF0.10100007057189941
aF0.13199996948242188
aF0.0989999771118164
aF0.13899993896484375
aF0.0989999771118164
aF0.0989999771118164
aF0.13200020790100098
aF0.0989999771118164
aF0.13199996948242188
aF0.11399984359741211
aF0.09900021553039551
aF0.0989999771118164
aF0.13199996948242188
aF0.0989999771118164
aF0.13199996948242188
aF0.0989999771118164
aF0.13199996948242188
aF0.0989999771118164
aF0.13199996948242188
aF0.09900021553039551
aF0.13199996948242188
aF0.0989999771118164
aF0.12100005149841309
aF0.0989999771118164
aF0.13199996948242188
aF0.0989999771118164
aF0.13199996948242188
aF0.0989999771118164
aF0.13199996948242188
aF0.10199999809265137
aF0.0989999771118164
aF0.16499996185302734
aF0.23100018501281738
aF0.0989999771118164
aF0.06799983978271484
aF0.06600022315979004
aF0.1979999542236328
aF0.06599998474121094
aF0.06599998474121094
aF0.06599998474121094
aF0.13199996948242188
aF0.0989999771118164
aF0.13499999046325684
aF0.0989999771118164
aF0.13199996948242188
aF0.09900021553039551
aF0.10199999809265137
aF0.13199996948242188
aF0.0989999771118164
aF0.13499999046325684
aF0.10299992561340332
aF0.0989999771118164
aF0.10000014305114746
aF0.13199996948242188
aF0.13199996948242188
aF0.0989999771118164
aF0.13199996948242188
aF0.09999990463256836
aF0.09900021553039551
aF0.13199996948242188
aF0.0989999771118164
aF0.13400006294250488
aF0.0989999771118164
aF0.13199996948242188
aF0.1099998950958252
aF0.0989999771118164
aF0.13199996948242188
aF0.09900021553039551
aF0.13399982452392578
aF0.0989999771118164
aF0.0989999771118164
aF0.13200020790100098
aF0.0989999771118164
aF0.13199996948242188
aF0.0989999771118164
aF0.13199996948242188
aF0.0989999771118164
aF0.13199996948242188
aF0.0989999771118164
aF0.13199996948242188
aF0.09900021553039551
aF0.0989999771118164
aF0.13199996948242188
aF0.0989999771118164
aF0.13199996948242188
aF0.0989999771118164
aF0.13199996948242188
aF0.0989999771118164
aF0.13199996948242188
aF0.09900021553039551
aF0.13199996948242188
aF0.0989999771118164
aF0.0989999771118164
aF0.13199996948242188
aF0.0989999771118164
aF0.13499999046325684
aF0.0989999771118164
aF0.13199996948242188
aF0.0989999771118164
aF0.13200020790100098
aF0.0989999771118164
aF0.0989999771118164
aF0.13400006294250488
aF0.0989999771118164
aF0.13199996948242188
aF0.09999990463256836
aF0.13300013542175293
aF0.09999990463256836
aF0.0989999771118164
aF0.13700008392333984
aF0.0989999771118164
aF0.0989999771118164
aF0.13199996948242188
aF0.10199999809265137
aF0.13199996948242188
aF0.0989999771118164
aF0.13199996948242188
aF0.0989999771118164
aF0.13200020790100098
aF0.0989999771118164
aF0.13199996948242188
aF0.09999990463256836
aF0.26400017738342285
aF0.2049999237060547
aF0.13199996948242188
aF0.06599998474121094
aF0.06599998474121094
aF0.06599998474121094
aF0.07999992370605469
aF0.06600022315979004
aF0.0989999771118164
aF0.0989999771118164
aF0.09999990463256836
aF0.13400006294250488
aF0.0989999771118164
aF0.13199996948242188
aF0.0989999771118164
aF0.13199996948242188
aF0.0989999771118164
aF0.13200020790100098
aF0.0989999771118164
aF0.0989999771118164
aF0.13199996948242188
aF0.0989999771118164
aF0.13199996948242188
aF0.0989999771118164
aF0.13199996948242188
aF0.0989999771118164
aF0.13200020790100098
aF0.0989999771118164
aF0.09999990463256836
aF0.13199996948242188
aF0.0989999771118164
aF0.13199996948242188
aF0.0989999771118164
aF0.13200020790100098
aF0.0989999771118164
aF0.13199996948242188
aF0.0989999771118164
aF0.13199996948242188
aF0.0989999771118164
aF0.0989999771118164
aF0.13199996948242188
aF0.0989999771118164
aF0.13200020790100098
aF0.0989999771118164
aF0.13199996948242188
aF0.0989999771118164
aF0.13299989700317383
aF0.0989999771118164
aF0.09900021553039551
aF0.13199996948242188
aF0.0989999771118164
aF0.13399982452392578
aF0.09900021553039551
aF0.13199996948242188
aF0.0989999771118164
aF0.13199996948242188
aF0.0989999771118164
aF0.13199996948242188
aF0.0989999771118164
aF0.10800004005432129
aF0.13199996948242188
aF0.0989999771118164
aF0.13199996948242188
aF0.09900021553039551
aF0.0989999771118164
aF0.13199996948242188
aF0.10800004005432129
aF0.0989999771118164
aF0.13199996948242188
aF0.10699987411499023
aF0.13700008392333984
aF0.0989999771118164
aF0.0989999771118164
aF0.13199996948242188
aF0.0989999771118164
aF0.11500000953674316
aF0.13300013542175293
aF0.0989999771118164
aF0.1380000114440918
aF0.0989999771118164
aF0.0989999771118164
aF0.13199996948242188
aF0.10800004005432129
aF0.0989999771118164
aF0.13199996948242188
aF0.0989999771118164
aF0.13199996948242188
aF0.09900021553039551
aF0.13199996948242188
aF0.10199999809265137
aF0.0989999771118164
aF0.13299989700317383
aF0.11800003051757812
aF0.13199996948242188
aF0.23099994659423828
aF0.09900021553039551
aF0.06599998474121094
aF0.06599998474121094
aF0.06599998474121094
aF0.13199996948242188
aF0.0989999771118164
aF0.13199996948242188
aF0.0989999771118164
aF0.13499999046325684
aF0.0989999771118164
aF0.13199996948242188
aF0.10300016403198242
aF0.10199999809265137
aF0.13199996948242188
aF0.0989999771118164
aF0.14299988746643066
aF0.09900021553039551
aF0.10199999809265137
aF0.0989999771118164
aF0.13199996948242188
aF0.0989999771118164
aF0.13199996948242188
aF0.0989999771118164
aF0.13199996948242188
aF0.10400009155273438
aF0.13899993896484375
aF0.0989999771118164
aF0.0989999771118164
aF0.13199996948242188
aF0.1360001564025879
aF0.06599998474121094
aF0.13199996948242188
aF0.0989999771118164
aF0.17499995231628418
aF0.06599998474121094
aF0.0989999771118164
aF0.13700008392333984
aF0.0989999771118164
aF0.13199996948242188
aF0.0989999771118164
aF0.13200020790100098
aF0.0989999771118164
aF0.0989999771118164
aF0.13199996948242188
aF0.0989999771118164
aF0.13199996948242188
aF0.0989999771118164
aF0.11400008201599121
aF0.13199996948242188
aF0.0989999771118164
aF0.13199996948242188
aF0.0989999771118164
aF0.13199996948242188
aF0.0989999771118164
aF0.11100006103515625
aF0.13199996948242188
aF0.0989999771118164
aF0.10100007057189941
aF0.13199996948242188
aF0.0989999771118164
aF0.13199996948242188
aF0.10900020599365234
aF0.0989999771118164
aF0.13199996948242188
aF0.10100007057189941
aF0.13199996948242188
aF0.0989999771118164
aF0.13199996948242188
aF0.0989999771118164
aF0.0989999771118164
aF0.13199996948242188
aF0.1119999885559082
aF0.10000014305114746
aF0.13299989700317383
aF0.0989999771118164
aF0.13199996948242188
aF0.0989999771118164
aF0.13300013542175293
aF0.0989999771118164
aF0.13199996948242188
aF0.10100007057189941
aF0.0989999771118164
aF0.13199996948242188
aF0.0989999771118164
aF0.13199996948242188
aF0.0989999771118164
aF0.10600018501281738
aF0.13199996948242188
aF0.0989999771118164
aF0.2969999313354492
aF0.1979999542236328
aF0.0989999771118164
aF0.06599998474121094
aF0.06599998474121094
aF0.06600022315979004
aF0.06599998474121094
aF0.07499980926513672
aF0.09900021553039551
aF0.1399998664855957
aF0.0989999771118164
aF0.0989999771118164
aF0.13199996948242188
aF0.0989999771118164
aF0.13200020790100098
aF0.0989999771118164
aF0.13199996948242188
aF0.0989999771118164
aF0.0989999771118164
aF0.13199996948242188
aF0.0989999771118164
aF0.13199996948242188
aF0.10100007057189941
aF0.13199996948242188
aF0.0989999771118164
aF0.13199996948242188
aF0.09900021553039551
aF0.10199999809265137
aF0.13199996948242188
aF0.0989999771118164
aF0.13199996948242188
aF0.0989999771118164
aF0.13199996948242188
aF0.0989999771118164
aF0.13300013542175293
aF0.09999990463256836
aF0.0989999771118164
aF0.13199996948242188
aF0.0989999771118164
aF0.13199996948242188
aF0.09900021553039551
aF0.13199996948242188
aF0.09999990463256836
aF0.0989999771118164
aF0.13199996948242188
aF0.0989999771118164
aF0.13200020790100098
aF0.0989999771118164
aF0.13199996948242188
aF0.10399985313415527
aF0.13200020790100098
aF0.0989999771118164
aF0.10599994659423828
aF0.13199996948242188
aF0.0989999771118164
aF0.13199996948242188
aF0.11800003051757812
aF0.0989999771118164
aF0.0989999771118164
aF0.13199996948242188
aF0.0989999771118164
aF0.13200020790100098
aF0.0989999771118164
aF0.1419999599456787
aF0.16499996185302734
aF0.06599998474121094
aF0.0989999771118164
aF0.0989999771118164
aF0.13199996948242188
aF0.09900021553039551
aF0.0989999771118164
aF0.13199996948242188
aF0.0989999771118164
aF0.13199996948242188
aF0.0989999771118164
aF0.13199996948242188
aF0.0989999771118164
aF0.13199996948242188
aF0.09900021553039551
aF0.13199996948242188
aF0.0989999771118164
aF0.0989999771118164
aF0.13199996948242188
aF0.09999990463256836
aF0.13199996948242188
aF0.09900021553039551
aF0.13199996948242188
aF0.13199996948242188
aF0.10500001907348633
aF0.0989999771118164
aF0.10100007057189941
aF0.13399982452392578
aF0.23100018501281738
aF0.06599998474121094
aF0.16899991035461426
aF0.0989999771118164
aF0.06599998474121094
aF0.06599998474121094
aF0.10199999809265137
aF0.0989999771118164
aF0.13199996948242188
aF0.09900021553039551
aF0.10299992561340332
aF0.1359999179840088
aF0.0989999771118164
aF0.13199996948242188
aF0.0989999771118164
aF0.09900021553039551
aF0.13199996948242188
aF0.0989999771118164
aF0.13199996948242188
aF0.0989999771118164
aF0.13199996948242188
aF0.0989999771118164
aF0.13199996948242188
aF0.127000093460083
aF0.0989999771118164
aF0.0989999771118164
aF0.13199996948242188
aF0.0989999771118164
aF0.13200020790100098
aF0.10499978065490723
aF0.10000014305114746
aF0.13199996948242188
aF0.11700010299682617
aF0.09999990463256836
aF0.0989999771118164
aF0.13199996948242188
aF0.0989999771118164
aF0.13199996948242188
aF0.09900021553039551
aF0.13199996948242188
aF0.0989999771118164
aF0.13199996948242188
aF0.0989999771118164
aF0.13199996948242188
aF0.0989999771118164
aF0.0989999771118164
aF0.13199996948242188
aF0.0989999771118164
aF0.13200020790100098
aF0.0989999771118164
aF0.13199996948242188
aF0.0989999771118164
aF0.13199996948242188
aF0.0989999771118164
aF0.1380000114440918
aF0.0989999771118164
aF0.0989999771118164
aF0.13199996948242188
aF0.11500000953674316
aF0.0989999771118164
aF0.13300013542175293
aF0.0989999771118164
aF0.0989999771118164
aF0.13700008392333984
aF0.0989999771118164
aF0.13199996948242188
aF0.0989999771118164
aF0.11700010299682617
aF0.0989999771118164
aF0.13199996948242188
aF0.0989999771118164
aF0.13199996948242188
aF0.0989999771118164
aF0.13199996948242188
aF0.0989999771118164
aF0.13200020790100098
aF0.0989999771118164
aF0.13199996948242188
aF0.0989999771118164
aF0.0989999771118164
aF0.13199996948242188
aF0.0989999771118164
aF0.13199996948242188
aF0.0989999771118164
aF0.13200020790100098
aF0.0989999771118164
aF0.13199996948242188
aF0.0989999771118164
aF0.13199996948242188
aF0.0989999771118164
aF0.09999990463256836
aF0.13200020790100098
aF0.23199987411499023
aF0.23200011253356934
aF0.0989999771118164
aF0.06599998474121094
aF0.06599998474121094
aF0.06599998474121094
aF0.06599998474121094
aF0.06599998474121094
aF0.13199996948242188
aF0.0989999771118164
aF0.13199996948242188
aF0.10000014305114746
aF0.13899993896484375
aF0.0989999771118164
aF0.10599994659423828
aF0.13200020790100098
aF0.09999990463256836
aF0.0989999771118164
aF0.13400006294250488
aF0.0989999771118164
aF0.13199996948242188
aF0.0989999771118164
aF0.13199996948242188
aF0.0989999771118164
aF0.0989999771118164
aF0.13499999046325684
aF0.09900021553039551
aF0.13199996948242188
aF0.0989999771118164
aF0.10599994659423828
aF0.13199996948242188
aF0.0989999771118164
aF0.13199996948242188
aF0.0989999771118164
aF0.13200020790100098
aF0.0989999771118164
aF0.13299989700317383
aF0.0989999771118164
aF0.10199999809265137
aF0.13300013542175293
aF0.0989999771118164
aF0.13199996948242188
aF0.0989999771118164
aF0.14499998092651367
aF0.0989999771118164
aF0.0989999771118164
aF0.13199996948242188
aF0.0989999771118164
aF0.13200020790100098
aF0.10399985313415527
aF0.0989999771118164
aF0.13199996948242188
aF0.09900021553039551
aF0.13199996948242188
aF0.0989999771118164
aF0.13199996948242188
aF0.0989999771118164
aF0.1979999542236328
aF0.06599998474121094
aF0.06599998474121094
aF0.13199996948242188
aF0.09900021553039551
aF0.13199996948242188
aF0.09999990463256836
aF0.13199996948242188
aF0.10000014305114746
aF0.13199996948242188
aF0.0989999771118164
aF0.0989999771118164
aF0.13199996948242188
aF0.10100007057189941
aF0.13199996948242188
aF0.0989999771118164
aF0.13199996948242188
aF0.10299992561340332
aF0.0989999771118164
aF0.13200020790100098
aF0.0989999771118164
aF0.13199996948242188
aF0.0989999771118164
aF0.13199996948242188
aF0.1099998950958252
aF0.09900021553039551
aF0.13199996948242188
aF0.10599994659423828
aF0.0989999771118164
aF0.13199996948242188
aF0.0989999771118164
aF0.1400001049041748
aF0.0989999771118164
aF0.0989999771118164
aF0.13299989700317383
aF0.26400017738342285
aF0.1979999542236328
aF0.0989999771118164
aF0.06599998474121094
aF0.06699991226196289
aF0.06599998474121094
aF0.06600022315979004
aF0.09999990463256836
aF0.0989999771118164
aF0.0989999771118164
aF0.13199996948242188
aF0.0989999771118164
aF0.13199996948242188
aF0.09900021553039551
aF0.13199996948242188
aF0.0989999771118164
aF0.13199996948242188
aF0.0989999771118164
aF0.0989999771118164
aF0.13199996948242188
aF0.0989999771118164
aF0.13199996948242188
aF0.09900021553039551
aF0.13199996948242188
aF0.0989999771118164
aF0.13199996948242188
aF0.0989999771118164
aF0.13199996948242188
aF0.0989999771118164
aF0.0989999771118164
aF0.13199996948242188
aF0.09900021553039551
aF0.13199996948242188
aF0.0989999771118164
aF0.13199996948242188
aF0.0989999771118164
aF0.13199996948242188
aF0.0989999771118164
aF0.13199996948242188
aF0.0989999771118164
aF0.09900021553039551
aF0.13199996948242188
aF0.0989999771118164
aF0.13199996948242188
aF0.10800004005432129
aF0.0989999771118164
aF0.13199996948242188
aF0.0989999771118164
aF0.13199996948242188
aF0.0989999771118164
aF0.13199996948242188
aF0.10100007057189941
aF0.13199996948242188
aF0.0989999771118164
aF0.0989999771118164
aF0.1510000228881836
aF0.0989999771118164
aF0.09900021553039551
aF0.13199996948242188
aF0.0989999771118164
aF0.13199996948242188
aF0.0989999771118164
aF0.10800004005432129
aF0.13199996948242188
aF0.0989999771118164
aF0.13700008392333984
aF0.0989999771118164
aF0.0989999771118164
aF0.13199996948242188
aF0.0989999771118164
aF0.13199996948242188
aF0.10000014305114746
aF0.14899992942810059
aF0.06699991226196289
aF0.13199996948242188
aF0.09900021553039551
aF0.13199996948242188
aF0.0989999771118164
aF0.13199996948242188
aF0.0989999771118164
aF0.13299989700317383
aF0.09900021553039551
aF0.13199996948242188
aF0.09999990463256836
aF0.0989999771118164
aF0.13199996948242188
aF0.0989999771118164
aF0.13499999046325684
aF0.0989999771118164
aF0.13200020790100098
aF0.0989999771118164
aF0.0989999771118164
aF0.26399993896484375
aF0.23099994659423828
aF0.0989999771118164
aF0.06599998474121094
aF0.06600022315979004
aF0.06599998474121094
aF0.06599998474121094
aF0.07499980926513672
aF0.09900021553039551
aF0.13199996948242188
aF0.0989999771118164
aF0.13199996948242188
aF0.0989999771118164
aF0.13199996948242188
aF0.0989999771118164
aF0.0989999771118164
aF0.13199996948242188
aF0.09900021553039551
aF0.13299989700317383
aF0.0989999771118164
aF0.13199996948242188
aF0.0989999771118164
aF0.13199996948242188
aF0.09900021553039551
aF0.0989999771118164
aF0.13199996948242188
aF0.0989999771118164
aF0.13199996948242188
aF0.0989999771118164
aF0.13199996948242188
aF0.0989999771118164
aF0.13199996948242188
aF0.0989999771118164
aF0.13200020790100098
aF0.0989999771118164
aF0.0989999771118164
aF0.13199996948242188
aF0.0989999771118164
aF0.13199996948242188
aF0.0989999771118164
aF0.0989999771118164
aF0.15000009536743164
aF0.0989999771118164
aF0.13199996948242188
aF0.0989999771118164
aF0.11300015449523926
aF0.0989999771118164
aF0.13199996948242188
aF0.0989999771118164
aF0.13199996948242188
aF0.0989999771118164
aF0.13199996948242188
aF0.0989999771118164
aF0.13200020790100098
aF0.0989999771118164
aF0.13199996948242188
aF0.0989999771118164
aF0.0989999771118164
aF0.13199996948242188
aF0.0989999771118164
aF0.13300013542175293
aF0.11699986457824707
aF0.0989999771118164
aF0.13199996948242188
aF0.0989999771118164
aF0.13200020790100098
aF0.0989999771118164
aF0.0989999771118164
aF0.1399998664855957
aF0.0989999771118164
aF0.13200020790100098
aF0.0989999771118164
aF0.0989999771118164
aF0.13199996948242188
aF0.0989999771118164
aF0.13199996948242188
aF0.0989999771118164
aF0.13700008392333984
aF0.0989999771118164
aF0.0989999771118164
aF0.13199996948242188
aF0.0989999771118164
aF0.13199996948242188
aF0.09900021553039551
aF0.13199996948242188
aF0.0989999771118164
aF0.13299989700317383
aF0.0989999771118164
aF0.13199996948242188
aF0.0989999771118164
aF0.09900021553039551
aF0.13199996948242188
aF0.26399993896484375
aF0.23099994659423828
aF0.06599998474121094
aF0.06599998474121094
aF0.06599998474121094
aF0.06599998474121094
aF0.06700015068054199
aF0.06599998474121094
aF0.13199996948242188
aF0.0989999771118164
aF0.13199996948242188
aF0.0989999771118164
aF0.13199996948242188
aF0.09900021553039551
aF0.13199996948242188
aF0.0989999771118164
aF0.13199996948242188
aF0.0989999771118164
aF0.13199996948242188
aF0.10000014305114746
aF0.0989999771118164
aF0.13199996948242188
aF0.0989999771118164
aF0.13199996948242188
aF0.0989999771118164
aF0.13199996948242188
aF0.10000014305114746
aF0.0989999771118164
aF0.1359999179840088
aF0.0989999771118164
aF0.13199996948242188
aF0.0989999771118164
aF0.13199996948242188
aF0.09900021553039551
aF0.13199996948242188
aF0.11699986457824707
aF0.0989999771118164
aF0.0989999771118164
aF0.13200020790100098
aF0.09999990463256836
aF0.13199996948242188
aF0.0989999771118164
aF0.1400001049041748
aF0.0989999771118164
aF0.0989999771118164
aF0.13199996948242188
aF0.10700011253356934
aF0.0989999771118164
aF0.13199996948242188
aF0.0989999771118164
aF0.13199996948242188
aF0.0989999771118164
aF0.13199996948242188
aF0.0989999771118164
aF0.13200020790100098
aF0.0989999771118164
aF0.0989999771118164
aF0.13199996948242188
aF0.0989999771118164
aF0.13199996948242188
aF0.09999990463256836
aF0.13200020790100098
aF0.0989999771118164
aF0.0989999771118164
aF0.13199996948242188
aF0.0989999771118164
aF0.13199996948242188
aF0.10299992561340332
aF0.13200020790100098
aF0.0989999771118164
aF0.13199996948242188
aF0.0989999771118164
aF0.0989999771118164
aF0.13199996948242188
aF0.0989999771118164
aF0.13199996948242188
aF0.0989999771118164
aF0.13200020790100098
aF0.0989999771118164
aF0.13399982452392578
aF0.09900021553039551
aF0.13199996948242188
aF0.0989999771118164
aF0.09999990463256836
aF0.13199996948242188
aF0.0989999771118164
aF0.13900017738342285
aF0.09999990463256836
aF0.0989999771118164
aF0.13199996948242188
aF0.10000014305114746
aF0.13199996948242188
aF0.23099994659423828
aF0.23099994659423828
aF0.0989999771118164
aF0.06599998474121094
aF0.0710000991821289
aF0.06599998474121094
aF0.06599998474121094
aF0.06599998474121094
aF0.13199996948242188
aF0.10000014305114746
aF0.13199996948242188
aF0.0989999771118164
aF0.10299992561340332
aF0.13199996948242188
aF0.0989999771118164
aF0.13200020790100098
aF0.0989999771118164
aF0.13199996948242188
aF0.0989999771118164
aF0.13700008392333984
aF0.0989999771118164
aF0.0989999771118164
aF0.13199996948242188
aF0.0989999771118164
aF0.13199996948242188
aF0.0989999771118164
aF0.13199996948242188
aF0.0989999771118164
aF0.10199999809265137
aF0.13200020790100098
aF0.09999990463256836
aF0.13199996948242188
aF0.0989999771118164
aF0.13199996948242188
aF0.0989999771118164
aF0.13400006294250488
aF0.0989999771118164
aF0.0989999771118164
aF0.19900012016296387
aF0.06599998474121094
aF0.0989999771118164
aF0.0989999771118164
aF0.13199996948242188
aF0.0989999771118164
aF0.13300013542175293
aF0.0989999771118164
aF0.0989999771118164
aF0.13199996948242188
aF0.0989999771118164
aF0.1400001049041748
aF0.0989999771118164
aF0.0989999771118164
aF0.13199996948242188
aF0.10500001907348633
aF0.13199996948242188
aF0.0989999771118164
aF0.16700005531311035
aF0.06599998474121094
aF0.0989999771118164
aF0.13199996948242188
aF0.0989999771118164
aF0.13199996948242188
aF0.09900021553039551
aF0.13199996948242188
aF0.0989999771118164
aF0.13199996948242188
aF0.0989999771118164
aF0.0989999771118164
aF0.13199996948242188
aF0.10400009155273438
aF0.13199996948242188
aF0.0989999771118164
aF0.1359999179840088
aF0.10000014305114746
aF0.0989999771118164
aF0.13199996948242188
aF0.10700011253356934
aF0.09999990463256836
aF0.13199996948242188
aF0.0989999771118164
aF0.13199996948242188
aF0.0989999771118164
aF0.13200020790100098
aF0.0989999771118164
aF0.13199996948242188
aF0.0989999771118164
aF0.0989999771118164
aF0.13199996948242188
aF0.0989999771118164
aF0.13199996948242188
aF0.0989999771118164
aF0.11300015449523926
aF0.26399993896484375
aF0.1979999542236328
aF0.0989999771118164
aF0.06599998474121094
aF0.06599998474121094
aF0.06599998474121094
aF0.06800007820129395
aF0.0989999771118164
aF0.0989999771118164
aF0.13199996948242188
aF0.09900021553039551
aF0.13199996948242188
aF0.0989999771118164
aF0.13199996948242188
aF0.0989999771118164
aF0.0989999771118164
aF0.13199996948242188
aF0.0989999771118164
aF0.13900017738342285
aF0.0989999771118164
aF0.16499996185302734
aF0.06599998474121094
aF0.11400008201599121
aF0.0989999771118164
aF0.13199996948242188
aF0.0989999771118164
aF0.1510000228881836
aF0.0989999771118164
aF0.0989999771118164
aF0.16700005531311035
aF0.06699991226196289
aF0.0989999771118164
aF0.13199996948242188
aF0.0989999771118164
aF0.13200020790100098
aF0.0989999771118164
aF0.13199996948242188
aF0.0989999771118164
aF0.13199996948242188
aF0.0989999771118164
aF0.0989999771118164
aF0.13199996948242188
aF0.12400007247924805
aF0.0989999771118164
aF0.13199996948242188
aF0.0989999771118164
aF0.10500001907348633
aF0.13199996948242188
aF0.0989999771118164
aF0.13200020790100098
aF0.0989999771118164
aF0.13199996948242188
aF0.0989999771118164
aF0.10599994659423828
aF0.13199996948242188
aF0.0989999771118164
aF0.0989999771118164
aF0.1490001678466797
aF0.0989999771118164
aF0.0989999771118164
aF0.13199996948242188
aF0.12000012397766113
aF0.0989999771118164
aF0.13199996948242188
aF0.0989999771118164
aF0.125
aF0.0989999771118164
aF0.13199996948242188
aF0.0989999771118164
aF0.14700007438659668
aF0.0989999771118164
aF0.0989999771118164
aF0.0989999771118164
aF0.13199996948242188
aF0.0989999771118164
aF0.13200020790100098
aF0.0989999771118164
aF0.14299988746643066
aF0.0989999771118164
aF0.0989999771118164
aF0.13199996948242188
aF0.10700011253356934
aF0.0989999771118164
aF0.13199996948242188
aF0.0989999771118164
aF0.13499999046325684
aF0.0989999771118164
aF0.13200020790100098
aF0.0989999771118164
aF0.0989999771118164
aF0.16899991035461426
aF0.06699991226196289
aF0.23100018501281738
aF0.20399999618530273
aF0.0989999771118164
aF0.06599998474121094
aF0.06599998474121094
aF0.06599998474121094
aF0.07500004768371582
aF0.0989999771118164
aF0.13199996948242188
aF0.0989999771118164
aF0.14100003242492676
aF0.0989999771118164
aF0.0989999771118164
aF0.13199996948242188
aF0.10400009155273438
aF0.13299989700317383
aF0.0989999771118164
aF0.09900021553039551
aF0.13199996948242188
aF0.0989999771118164
aF0.13199996948242188
aF0.0989999771118164
aF0.13299989700317383
aF0.09900021553039551
aF0.13199996948242188
aF0.0989999771118164
aF0.0989999771118164
aF0.13199996948242188
aF0.0989999771118164
aF0.13199996948242188
aF0.0989999771118164
aF0.13199996948242188
aF0.09900021553039551
aF0.13199996948242188
aF0.0989999771118164
aF0.13199996948242188
aF0.0989999771118164
aF0.13199996948242188
aF0.0989999771118164
aF0.0989999771118164
aF0.13199996948242188
aF0.09900021553039551
aF0.13199996948242188
aF0.11399984359741211
aF0.0989999771118164
aF0.13200020790100098
aF0.0989999771118164
aF0.13499999046325684
aF0.0989999771118164
aF0.0989999771118164
aF0.13199996948242188
aF0.10899996757507324
aF0.0989999771118164
aF0.13199996948242188
aF0.0989999771118164
aF0.1400001049041748
aF0.0989999771118164
aF0.16499996185302734
aF0.06599998474121094
aF0.10100007057189941
aF0.13199996948242188
aF0.0989999771118164
aF0.13199996948242188
aF0.10300016403198242
aF0.0989999771118164
aF0.13199996948242188
aF0.0989999771118164
aF0.13199996948242188
aF0.0989999771118164
aF0.13199996948242188
aF0.0989999771118164
aF0.13300013542175293
aF0.0989999771118164
aF0.13199996948242188
aF0.0989999771118164
aF0.10000014305114746
aF0.13199996948242188
aF0.0989999771118164
aF0.13199996948242188
aF0.0989999771118164
aF0.13199996948242188
aF0.0989999771118164
aF0.1380000114440918
aF0.0989999771118164
aF0.0989999771118164
aF0.13200020790100098
aF0.0989999771118164
aF0.13499999046325684
aF0.0989999771118164
aF0.0989999771118164
aF0.13199996948242188
aF0.0989999771118164
aF0.23099994659423828
aF0.21300005912780762
aF0.0989999771118164
aF0.06599998474121094
aF0.06599998474121094
aF0.06599998474121094
aF0.07899999618530273
aF0.0989999771118164
aF0.13200020790100098
aF0.0989999771118164
aF0.13199996948242188
aF0.0989999771118164
aF0.0989999771118164
aF0.13199996948242188
aF0.0989999771118164
aF0.13199996948242188
aF0.0989999771118164
aF0.13200020790100098
aF0.0989999771118164
aF0.13199996948242188
aF0.1979999542236328
aF0.06599998474121094
aF0.07999992370605469
aF0.0989999771118164
aF0.09900021553039551
aF0.13199996948242188
aF0.11599993705749512
aF0.0989999771118164
aF0.13199996948242188
aF0.0989999771118164
aF0.13400006294250488
aF0.0989999771118164
aF0.0989999771118164
aF0.13199996948242188
aF0.10100007057189941
aF0.13199996948242188
aF0.0989999771118164
aF0.13199996948242188
aF0.10100007057189941
aF0.13199996948242188
aF0.0989999771118164
aF0.0989999771118164
aF0.13700008392333984
aF0.0989999771118164
aF0.13199996948242188
aF0.0989999771118164
aF0.13200020790100098
aF0.0989999771118164
aF0.0989999771118164
aF0.13199996948242188
aF0.0989999771118164
aF0.13199996948242188
aF0.0989999771118164
aF0.13199996948242188
aF0.10000014305114746
aF0.13199996948242188
aF0.0989999771118164
aF0.0989999771118164
aF0.1400001049041748
aF0.0989999771118164
aF0.13199996948242188
aF0.09999990463256836
aF0.15600013732910156
aF0.06599998474121094
aF0.13199996948242188
aF0.0989999771118164
aF0.13499999046325684
aF0.0989999771118164
aF0.0989999771118164
aF0.13199996948242188
aF0.12100005149841309
aF0.0989999771118164
aF0.13199996948242188
aF0.0989999771118164
aF0.10500001907348633
aF0.13199996948242188
aF0.09900021553039551
aF0.13199996948242188
aF0.11299991607666016
aF0.0989999771118164
aF0.13199996948242188
aF0.0989999771118164
aF0.10400009155273438
aF0.13199996948242188
aF0.0989999771118164
aF0.13199996948242188
aF0.0989999771118164
aF0.13200020790100098
aF0.0989999771118164
aF0.13199996948242188
aF0.09999990463256836
aF0.0989999771118164
aF0.23099994659423828
aF0.21500015258789062
aF0.0989999771118164
aF0.06599998474121094
aF0.06599998474121094
aF0.06599998474121094
aF0.06599998474121094
aF0.0989999771118164
aF0.1419999599456787
aF0.09900021553039551
aF0.13199996948242188
aF0.0989999771118164
aF0.0989999771118164
aF0.13199996948242188
aF0.0989999771118164
aF0.1359999179840088
aF0.09900021553039551
aF0.13199996948242188
aF0.0989999771118164
aF0.0989999771118164
aF0.13199996948242188
aF0.0989999771118164
aF0.13199996948242188
aF0.0989999771118164
aF0.13199996948242188
aF0.12100005149841309
aF0.0989999771118164
aF0.0989999771118164
aF0.13200020790100098
aF0.10899996757507324
aF0.13199996948242188
aF0.0989999771118164
aF0.0989999771118164
aF0.13199996948242188
aF0.0989999771118164
aF0.13300013542175293
aF0.0989999771118164
aF0.0989999771118164
aF0.13499999046325684
aF0.0989999771118164
aF0.13199996948242188
aF0.0989999771118164
aF0.13899993896484375
aF0.09900021553039551
aF0.13199996948242188
aF0.0989999771118164
aF0.0989999771118164
aF0.13199996948242188
aF0.0989999771118164
aF0.13199996948242188
aF0.0989999771118164
aF0.13199996948242188
aF0.09900021553039551
aF0.13199996948242188
aF0.1099998950958252
aF0.0989999771118164
aF0.13199996948242188
aF0.0989999771118164
aF0.10000014305114746
aF0.13299989700317383
aF0.0989999771118164
aF0.13199996948242188
aF0.10500001907348633
aF0.13200020790100098
aF0.0989999771118164
aF0.0989999771118164
aF0.1510000228881836
aF0.0989999771118164
aF0.0989999771118164
aF0.13199996948242188
aF0.0989999771118164
aF0.0989999771118164
aF0.13199996948242188
aF0.13199996948242188
aF0.0989999771118164
aF0.09900021553039551
aF0.13199996948242188
aF0.0989999771118164
aF0.11299991607666016
aF0.13199996948242188
aF0.0989999771118164
aF0.13199996948242188
aF0.09900021553039551
aF0.13199996948242188
aF0.0989999771118164
aF0.13299989700317383
aF0.0989999771118164
aF0.0989999771118164
aF0.13200020790100098
aF0.0989999771118164
aF0.13199996948242188
aF0.0989999771118164
aF0.1979999542236328
aF0.20600008964538574
aF0.0989999771118164
aF0.06599998474121094
aF0.06599998474121094
aF0.06599998474121094
aF0.10299992561340332
aF0.0989999771118164
aF0.13200020790100098
aF0.0989999771118164
aF0.13199996948242188
aF0.0989999771118164
aF0.13199996948242188
aF0.0989999771118164
aF0.13199996948242188
aF0.0989999771118164
aF0.13199996948242188
aF0.09900021553039551
aF0.10899996757507324
aF0.13199996948242188
aF0.0989999771118164
aF0.0989999771118164
aF0.1380000114440918
aF0.0989999771118164
aF0.13199996948242188
aF0.0989999771118164
aF0.13199996948242188
aF0.0989999771118164
aF0.09900021553039551
aF0.13199996948242188
aF0.10099983215332031
aF0.13200020790100098
aF0.0989999771118164
aF0.1380000114440918
aF0.0989999771118164
aF0.0989999771118164
aF0.13199996948242188
aF0.0989999771118164
aF0.13199996948242188
aF0.0989999771118164
aF0.13199996948242188
aF0.0989999771118164
aF0.13400006294250488
aF0.0989999771118164
aF0.0989999771118164
aF0.1549999713897705
aF0.09900021553039551
aF0.0989999771118164
aF0.13199996948242188
aF0.10100007057189941
aF0.0989999771118164
aF0.13199996948242188
aF0.0989999771118164
aF0.13199996948242188
aF0.0989999771118164
aF0.13199996948242188
aF0.0989999771118164
aF0.13199996948242188
aF0.09900021553039551
aF0.13199996948242188
aF0.0989999771118164
aF0.0989999771118164
aF0.13199996948242188
aF0.0989999771118164
aF0.13199996948242188
aF0.0989999771118164
aF0.13199996948242188
aF0.0989999771118164
aF0.13200020790100098
aF0.0989999771118164
aF0.0989999771118164
aF0.13199996948242188
aF0.09999990463256836
aF0.1360001564025879
aF0.0989999771118164
aF0.13199996948242188
aF0.0989999771118164
aF0.14800000190734863
aF0.06599998474121094
aF0.13199996948242188
aF0.0989999771118164
aF0.1419999599456787
aF0.09900021553039551
aF0.0989999771118164
aF0.13199996948242188
aF0.11299991607666016
aF0.0989999771118164
aF0.13199996948242188
aF0.0989999771118164
aF0.13200020790100098
aF0.0989999771118164
aF0.13199996948242188
aF0.1979999542236328
aF0.1979999542236328
aF0.0989999771118164
aF0.06599998474121094
aF0.07899999618530273
aF0.06599998474121094
aF0.06599998474121094
aF0.13200020790100098
aF0.0989999771118164
aF0.13399982452392578
aF0.09900021553039551
aF0.13199996948242188
aF0.0989999771118164
aF0.13299989700317383
aF0.0989999771118164
aF0.0989999771118164
aF0.13200020790100098
aF0.0989999771118164
aF0.13199996948242188
aF0.0989999771118164
aF0.13199996948242188
aF0.0989999771118164
aF0.10100007057189941
aF0.13199996948242188
aF0.0989999771118164
aF0.13199996948242188
aF0.0989999771118164
aF0.13199996948242188
aF0.0989999771118164
aF0.13200020790100098
aF0.0989999771118164
aF0.13199996948242188
aF0.0989999771118164
aF0.13199996948242188
aF0.0989999771118164
aF0.0989999771118164
aF0.13199996948242188
aF0.0989999771118164
aF0.13200020790100098
aF0.0989999771118164
aF0.13199996948242188
aF0.0989999771118164
aF0.11400008201599121
aF0.13199996948242188
aF0.0989999771118164
aF0.0989999771118164
aF0.13199996948242188
aF0.0989999771118164
aF0.13199996948242188
aF0.0989999771118164
aF0.0989999771118164
aF0.13200020790100098
aF0.13199996948242188
aF0.10500001907348633
aF0.0989999771118164
aF0.13199996948242188
aF0.0989999771118164
aF0.13199996948242188
aF0.0989999771118164
aF0.13199996948242188
aF0.0989999771118164
aF0.13300013542175293
aF0.09999990463256836
aF0.0989999771118164
aF0.13199996948242188
aF0.0989999771118164
aF0.13200020790100098
aF0.0989999771118164
aF0.16499996185302734
aF0.06599998474121094
aF0.13199996948242188
aF0.0989999771118164
aF0.0989999771118164
aF0.13199996948242188
aF0.0989999771118164
aF0.13200020790100098
aF0.0989999771118164
aF0.13399982452392578
aF0.09900021553039551
aF0.13199996948242188
aF0.0989999771118164
aF0.0989999771118164
aF0.13199996948242188
aF0.0989999771118164
aF0.13199996948242188
aF0.0989999771118164
aF0.13199996948242188
aF0.09900021553039551
aF0.13199996948242188
aF0.0989999771118164
aF0.13199996948242188
aF0.0989999771118164
aF0.19899988174438477
aF0.2200000286102295
aF0.0989999771118164
aF0.06600022315979004
aF0.06599998474121094
aF0.06599998474121094
aF0.0989999771118164
aF0.0989999771118164
aF0.0989999771118164
aF0.13199996948242188
aF0.0989999771118164
aF0.13199996948242188
aF0.0989999771118164
aF0.13200020790100098
aF0.1119999885559082
aF0.0989999771118164
aF0.13199996948242188
aF0.0989999771118164
aF0.1119999885559082
aF0.13199996948242188
aF0.0989999771118164
aF0.16499996185302734
aF0.06599998474121094
aF0.0989999771118164
aF0.13200020790100098
aF0.0989999771118164
aF0.13199996948242188
aF0.0989999771118164
aF0.13199996948242188
aF0.0989999771118164
aF0.13199996948242188
aF0.0989999771118164
aF0.13199996948242188
aF0.09900021553039551
aF0.10099983215332031
aF0.13199996948242188
aF0.09900021553039551
aF0.13199996948242188
aF0.0989999771118164
aF0.13199996948242188
aF0.0989999771118164
aF0.13199996948242188
aF0.11400008201599121
aF0.0989999771118164
aF0.0989999771118164
aF0.13199996948242188
aF0.10899996757507324
aF0.0989999771118164
aF0.13199996948242188
aF0.09900021553039551
aF0.13399982452392578
aF0.0989999771118164
aF0.13199996948242188
aF0.09900021553039551
aF0.14399981498718262
aF0.0989999771118164
aF0.09900021553039551
aF0.13199996948242188
aF0.10899996757507324
aF0.0989999771118164
aF0.13199996948242188
aF0.0989999771118164
aF0.1419999599456787
aF0.0989999771118164
aF0.0989999771118164
aF0.13200020790100098
aF0.0989999771118164
aF0.13199996948242188
aF0.09999990463256836
aF0.0989999771118164
aF0.13199996948242188
aF0.09900021553039551
aF0.13199996948242188
aF0.0989999771118164
aF0.13199996948242188
aF0.0989999771118164
aF0.14899992942810059
aF0.06599998474121094
aF0.13200020790100098
aF0.0989999771118164
aF0.13399982452392578
aF0.0989999771118164
aF0.13200020790100098
aF0.0989999771118164
aF0.14299988746643066
aF0.0989999771118164
aF0.0989999771118164
aF0.13199996948242188
aF0.11900019645690918
aF0.0989999771118164
aF0.0989999771118164
aF0.13199996948242188
aF0.1979999542236328
aF0.1979999542236328
aF0.0989999771118164
aF0.06700015068054199
aF0.06599998474121094
aF0.06599998474121094
aF0.0989999771118164
aF0.0989999771118164
aF0.13199996948242188
aF0.0989999771118164
aF0.13199996948242188
aF0.09900021553039551
aF0.13299989700317383
aF0.0989999771118164
aF0.13300013542175293
aF0.0989999771118164
aF0.09999990463256836
aF0.13199996948242188
aF0.0989999771118164
aF0.13199996948242188
aF0.10199999809265137
aF0.13200020790100098
aF0.0989999771118164
aF0.13299989700317383
aF0.0989999771118164
aF0.0989999771118164
aF0.13300013542175293
aF0.0989999771118164
aF0.13199996948242188
aF0.0989999771118164
aF0.13199996948242188
aF0.0989999771118164
aF0.0989999771118164
aF0.13199996948242188
aF0.09900021553039551
aF0.13199996948242188
aF0.0989999771118164
aF0.13199996948242188
aF0.0989999771118164
aF0.13499999046325684
aF0.0989999771118164
aF0.0989999771118164
aF0.1419999599456787
aF0.0989999771118164
aF0.13200020790100098
aF0.0989999771118164
aF0.0989999771118164
aF0.13400006294250488
aF0.0989999771118164
aF0.13199996948242188
aF0.11399984359741211
aF0.10500001907348633
aF0.0989999771118164
aF0.13200020790100098
aF0.10599994659423828
aF0.11299991607666016
aF0.13199996948242188
aF0.0989999771118164
aF0.13199996948242188
aF0.09900021553039551
aF0.0989999771118164
aF0.13299989700317383
aF0.12599992752075195
aF0.0989999771118164
aF0.09900021553039551
aF0.13199996948242188
aF0.10199999809265137
aF0.13199996948242188
aF0.0989999771118164
aF0.13199996948242188
aF0.10100007057189941
aF0.0989999771118164
aF0.13199996948242188
aF0.0989999771118164
aF0.15600013732910156
aF0.0989999771118164
aF0.0989999771118164
aF0.0989999771118164
aF0.13699984550476074
aF0.09900021553039551
aF0.13199996948242188
aF0.0989999771118164
aF0.15400004386901855
aF0.06599998474121094
aF0.13199996948242188
aF0.0989999771118164
aF0.15400004386901855
aF0.0989999771118164
aF0.0989999771118164
aF0.0989999771118164
aF0.13899993896484375
aF0.0989999771118164
aF0.19800019264221191
aF0.20799994468688965
aF0.06599998474121094
aF0.06599998474121094
aF0.06599998474121094
aF0.0989999771118164
aF0.10100007057189941
aF0.0989999771118164
aF0.13199996948242188
aF0.0989999771118164
aF0.13199996948242188
aF0.0989999771118164
aF0.13199996948242188
aF0.10100007057189941
aF0.10000014305114746
aF0.13199996948242188
aF0.0989999771118164
aF0.13199996948242188
aF0.10199999809265137
aF0.13199996948242188
aF0.0989999771118164
aF0.13199996948242188
aF0.10000014305114746
aF0.0989999771118164
aF0.13199996948242188
aF0.0989999771118164
aF0.1359999179840088
aF0.0989999771118164
aF0.13200020790100098
aF0.0989999771118164
aF0.0989999771118164
aF0.13199996948242188
aF0.0989999771118164
aF0.13199996948242188
aF0.10700011253356934
aF0.0989999771118164
aF0.13199996948242188
aF0.13899993896484375
aF0.06599998474121094
aF0.13199996948242188
aF0.13199996948242188
aF0.09900021553039551
aF0.0989999771118164
aF0.13199996948242188
aF0.0989999771118164
aF0.13199996948242188
aF0.0989999771118164
aF0.13199996948242188
aF0.0989999771118164
aF0.13199996948242188
aF0.0989999771118164
aF0.13200020790100098
aF0.0989999771118164
aF0.11599993705749512
aF0.09999990463256836
aF0.13200020790100098
aF0.0989999771118164
aF0.13199996948242188
aF0.0989999771118164
aF0.13199996948242188
aF0.0989999771118164
aF0.13700008392333984
aF0.0989999771118164
aF0.0989999771118164
aF0.13299989700317383
aF0.0989999771118164
aF0.13200020790100098
aF0.0989999771118164
aF0.13199996948242188
aF0.0989999771118164
aF0.0989999771118164
aF0.13199996948242188
aF0.0989999771118164
aF0.13300013542175293
aF0.0989999771118164
aF0.13199996948242188
aF0.0989999771118164
aF0.1359999179840088
aF0.0989999771118164
aF0.0989999771118164
aF0.13200020790100098
aF0.12099981307983398
aF0.0989999771118164
aF0.09900021553039551
aF0.13199996948242188
aF0.11599993705749512
aF0.0989999771118164
aF0.13199996948242188
aF0.0989999771118164
aF0.1510000228881836
aF0.0989999771118164
aF0.0989999771118164
aF0.18700003623962402
aF0.1979999542236328
aF0.09900021553039551
aF0.06599998474121094
aF0.06599998474121094
aF0.0690000057220459
aF0.0989999771118164
aF0.13199996948242188
aF0.0989999771118164
aF0.14599990844726562
aF0.0989999771118164
aF0.09900021553039551
aF0.13199996948242188
aF0.10099983215332031
aF0.13199996948242188
aF0.09900021553039551
aF0.0989999771118164
aF0.14399981498718262
aF0.09900021553039551
aF0.0989999771118164
aF0.13199996948242188
aF0.0989999771118164
aF0.13199996948242188
aF0.0989999771118164
aF0.13199996948242188
aF0.1100001335144043
aF0.0989999771118164
aF0.13199996948242188
aF0.0989999771118164
aF0.13899993896484375
aF0.10000014305114746
aF0.0989999771118164
aF0.13199996948242188
aF0.1099998950958252
aF0.0989999771118164
aF0.13200020790100098
aF0.0989999771118164
aF0.13299989700317383
aF0.0989999771118164
aF0.13199996948242188
aF0.0989999771118164
aF0.13200020790100098
aF0.0989999771118164
aF0.0989999771118164
aF0.13199996948242188
aF0.0989999771118164
aF0.13199996948242188
aF0.0989999771118164
aF0.13700008392333984
aF0.0989999771118164
aF0.0989999771118164
aF0.16499996185302734
aF0.06599998474121094
aF0.1360001564025879
aF0.0989999771118164
aF0.13199996948242188
aF0.0989999771118164
aF0.0989999771118164
aF0.13199996948242188
aF0.0989999771118164
aF0.13499999046325684
aF0.10400009155273438
aF0.0989999771118164
aF0.13199996948242188
aF0.0989999771118164
aF0.1360001564025879
aF0.0989999771118164
aF0.15999984741210938
aF0.06599998474121094
aF0.13199996948242188
aF0.09900021553039551
aF0.13199996948242188
aF0.0989999771118164
aF0.09999990463256836
aF0.13199996948242188
aF0.0989999771118164
aF0.17300009727478027
aF0.06599998474121094
aF0.13199996948242188
aF0.0989999771118164
aF0.0989999771118164
aF0.13199996948242188
aF0.09900021553039551
aF0.13199996948242188
aF0.11699986457824707
aF0.0989999771118164
aF0.13200020790100098
aF0.0989999771118164
aF0.10099983215332031
aF0.13499999046325684
aF0.0989999771118164
aF0.2980000972747803
aF0.1979999542236328
aF0.0989999771118164
aF0.06599998474121094
aF0.06599998474121094
aF0.06600022315979004
aF0.06599998474121094
aF0.06599998474121094
aF0.0989999771118164
aF0.13199996948242188
aF0.0989999771118164
aF0.13299989700317383
aF0.0989999771118164
aF0.13200020790100098
aF0.10099983215332031
aF0.0989999771118164
aF0.13200020790100098
aF0.0989999771118164
aF0.13199996948242188
aF0.10099983215332031
aF0.13200020790100098
aF0.0989999771118164
aF0.0989999771118164
aF0.11699986457824707
aF0.13199996948242188
aF0.09900021553039551
aF0.13199996948242188
aF0.0989999771118164
aF0.13199996948242188
aF0.0989999771118164
aF0.13199996948242188
aF0.0989999771118164
aF0.0989999771118164
aF0.13199996948242188
aF0.10100007057189941
aF0.13199996948242188
aF0.0989999771118164
aF0.13200020790100098
aF0.13199996948242188
aF0.06599998474121094
aF0.13199996948242188
aF0.0989999771118164
aF0.13199996948242188
aF0.0989999771118164
aF0.13199996948242188
aF0.0989999771118164
aF0.15400004386901855
aF0.0989999771118164
aF0.0989999771118164
aF0.09900021553039551
aF0.13399982452392578
aF0.0989999771118164
aF0.13199996948242188
aF0.09900021553039551
aF0.1399998664855957
aF0.0989999771118164
aF0.0989999771118164
aF0.13199996948242188
aF0.09900021553039551
aF0.13199996948242188
aF0.0989999771118164
aF0.13199996948242188
aF0.0989999771118164
aF0.0989999771118164
aF0.13199996948242188
aF0.0989999771118164
aF0.13199996948242188
aF0.09900021553039551
aF0.13199996948242188
aF0.0989999771118164
aF0.13199996948242188
aF0.0989999771118164
aF0.13199996948242188
aF0.0989999771118164
aF0.0989999771118164
aF0.13499999046325684
aF0.0989999771118164
aF0.13200020790100098
aF0.0989999771118164
aF0.13299989700317383
aF0.0989999771118164
aF0.0989999771118164
aF0.13300013542175293
aF0.0989999771118164
aF0.13199996948242188
aF0.0989999771118164
aF0.13199996948242188
aF0.0989999771118164
aF0.13199996948242188
aF0.0989999771118164
aF0.13200020790100098
aF0.11099982261657715
aF0.0989999771118164
aF0.19900012016296387
aF0.16499996185302734
aF0.0989999771118164
aF0.06599998474121094
aF0.06599998474121094
aF0.0989999771118164
aF0.09900021553039551
aF0.1379997730255127
aF0.09900021553039551
aF0.0989999771118164
aF0.13199996948242188
aF0.10299992561340332
aF0.13199996948242188
aF0.0989999771118164
aF0.13199996948242188
aF0.09900021553039551
aF0.0989999771118164
aF0.13199996948242188
aF0.0989999771118164
aF0.13199996948242188
aF0.0989999771118164
aF0.13199996948242188
aF0.0989999771118164
aF0.10500001907348633
aF0.13199996948242188
aF0.0989999771118164
aF0.13200020790100098
aF0.0989999771118164
aF0.13199996948242188
aF0.0989999771118164
aF0.14100003242492676
aF0.0989999771118164
aF0.0989999771118164
aF0.13199996948242188
aF0.0989999771118164
aF0.13199996948242188
aF0.0989999771118164
aF0.13200020790100098
aF0.10499978065490723
aF0.09900021553039551
aF0.13199996948242188
aF0.0989999771118164
aF0.13299989700317383
aF0.0989999771118164
aF0.13199996948242188
aF0.09900021553039551
aF0.0989999771118164
aF0.13199996948242188
aF0.0989999771118164
aF0.13199996948242188
aF0.0989999771118164
aF0.13199996948242188
aF0.0989999771118164
aF0.13199996948242188
aF0.12900018692016602
aF0.0989999771118164
aF0.0989999771118164
aF0.0989999771118164
aF0.1529998779296875
aF0.09900021553039551
aF0.0989999771118164
aF0.13199996948242188
aF0.12599992752075195
aF0.0989999771118164
aF0.0989999771118164
aF0.13199996948242188
aF0.10500001907348633
aF0.0989999771118164
aF0.13200020790100098
aF0.0989999771118164
aF0.13199996948242188
aF0.0989999771118164
aF0.13199996948242188
aF0.0989999771118164
aF0.13199996948242188
aF0.0989999771118164
aF0.0989999771118164
aF0.13200020790100098
aF0.0989999771118164
aF0.13199996948242188
aF0.0989999771118164
aF0.13199996948242188
aF0.0989999771118164
aF0.13199996948242188
aF0.0989999771118164
aF0.13199996948242188
aF0.09900021553039551
aF0.0989999771118164
aF0.13199996948242188
aF0.0989999771118164
aF0.13199996948242188
aF0.09999990463256836
aF0.16500020027160645
aF0.23099994659423828
aF0.0820000171661377
aF0.06599998474121094
aF0.06599998474121094
aF0.06599998474121094
aF0.13199996948242188
aF0.10199999809265137
aF0.13199996948242188
aF0.0989999771118164
aF0.13199996948242188
aF0.0989999771118164
aF0.13200020790100098
aF0.0989999771118164
aF0.0989999771118164
aF0.13199996948242188
aF0.0989999771118164
aF0.13199996948242188
aF0.0989999771118164
aF0.11100006103515625
aF0.13199996948242188
aF0.0989999771118164
aF0.13499999046325684
aF0.0989999771118164
aF0.13199996948242188
aF0.09900021553039551
aF0.0989999771118164
aF0.13199996948242188
aF0.0989999771118164
aF0.13199996948242188
aF0.0989999771118164
aF0.13199996948242188
aF0.0989999771118164
aF0.13199996948242188
aF0.10500001907348633
aF0.0989999771118164
aF0.13200020790100098
aF0.0989999771118164
aF0.13199996948242188
aF0.06599998474121094
aF0.16499996185302734
aF0.0989999771118164
aF0.0989999771118164
aF0.13199996948242188
aF0.0989999771118164
aF0.13200020790100098
aF0.0989999771118164
aF0.13199996948242188
aF0.0989999771118164
aF0.13199996948242188
aF0.0989999771118164
aF0.0989999771118164
aF0.13199996948242188
aF0.0989999771118164
aF0.13200020790100098
aF0.0989999771118164
aF0.13199996948242188
aF0.0989999771118164
aF0.13199996948242188
aF0.0989999771118164
aF0.13199996948242188
aF0.10000014305114746
aF0.13199996948242188
aF0.0989999771118164
aF0.0989999771118164
aF0.13700008392333984
aF0.09999990463256836
aF0.13199996948242188
aF0.0989999771118164
aF0.13400006294250488
aF0.0989999771118164
aF0.0989999771118164
aF0.13199996948242188
aF0.10300016403198242
aF0.13199996948242188
aF0.0989999771118164
aF0.0989999771118164
aF0.13199996948242188
aF0.0989999771118164
aF0.13199996948242188
aF0.0989999771118164
aF0.19800019264221191
aF0.06599998474121094
aF0.0989999771118164
aF0.0989999771118164
aF0.14599990844726562
aF0.0989999771118164
aF0.0989999771118164
aF0.13200020790100098
aF0.0989999771118164
aF0.1979999542236328
aF0.16499996185302734
aF0.24000000953674316
aF0.06599998474121094
aF0.06599998474121094
aF0.06599998474121094
aF0.06599998474121094
aF0.06599998474121094
aF0.0989999771118164
aF0.0989999771118164
aF0.13200020790100098
aF0.0989999771118164
aF0.13199996948242188
aF0.0989999771118164
aF0.0989999771118164
aF0.13199996948242188
aF0.0989999771118164
aF0.13199996948242188
aF0.0989999771118164
aF0.13200020790100098
aF0.0989999771118164
aF0.13199996948242188
aF0.0989999771118164
aF0.0989999771118164
aF0.13199996948242188
aF0.0989999771118164
aF0.13199996948242188
aF0.10500001907348633
aF0.13199996948242188
aF0.0989999771118164
aF0.13200020790100098
aF0.11699986457824707
aF0.0989999771118164
aF0.0989999771118164
aF0.13199996948242188
aF0.10400009155273438
aF0.13199996948242188
aF0.0989999771118164
aF0.0989999771118164
aF0.13200020790100098
aF0.0989999771118164
aF0.13199996948242188
aF0.0989999771118164
aF0.13199996948242188
aF0.0989999771118164
aF0.13199996948242188
aF0.0989999771118164
aF0.13499999046325684
aF0.0989999771118164
aF0.09900021553039551
aF0.13199996948242188
aF0.0989999771118164
aF0.13199996948242188
aF0.0989999771118164
aF0.13199996948242188
aF0.10199999809265137
aF0.0989999771118164
aF0.13199996948242188
aF0.0989999771118164
aF0.13200020790100098
aF0.0989999771118164
aF0.13199996948242188
aF0.0989999771118164
aF0.13199996948242188
aF0.0989999771118164
aF0.13199996948242188
aF0.0989999771118164
aF0.10000014305114746
aF0.13199996948242188
aF0.0989999771118164
aF0.13299989700317383
aF0.09900021553039551
aF0.1419999599456787
aF0.0989999771118164
aF0.0989999771118164
aF0.13299989700317383
aF0.0989999771118164
aF0.13200020790100098
aF0.0989999771118164
aF0.0989999771118164
aF0.13199996948242188
aF0.0989999771118164
aF0.13199996948242188
aF0.0989999771118164
aF0.13199996948242188
aF0.0989999771118164
aF0.13200020790100098
aF0.0989999771118164
aF0.13199996948242188
aF0.0989999771118164
aF0.0989999771118164
aF0.13199996948242188
aF0.0989999771118164
aF0.2969999313354492
aF0.16500020027160645
aF0.06599998474121094
aF0.06599998474121094
aF0.06599998474121094
aF0.06599998474121094
aF0.0989999771118164
aF0.0989999771118164
aF0.10599994659423828
aF0.13199996948242188
aF0.09900021553039551
aF0.13199996948242188
aF0.0989999771118164
aF0.0989999771118164
aF0.13199996948242188
aF0.0989999771118164
aF0.13299989700317383
aF0.09900021553039551
aF0.06599998474121094
aF0.16499996185302734
aF0.13199996948242188
aF0.0989999771118164
aF0.13199996948242188
aF0.10199999809265137
aF0.10299992561340332
aF0.13200020790100098
aF0.0989999771118164
aF0.13199996948242188
aF0.0989999771118164
aF0.0989999771118164
aF0.13199996948242188
aF0.0989999771118164
aF0.13400006294250488
aF0.13199996948242188
aF0.0989999771118164
aF0.0989999771118164
aF0.10500001907348633
aF0.13199996948242188
aF0.0989999771118164
aF0.13400006294250488
aF0.0989999771118164
aF0.13700008392333984
aF0.0989999771118164
aF0.09999990463256836
aF0.13200020790100098
aF0.13299989700317383
aF0.0989999771118164
aF0.0989999771118164
aF0.13199996948242188
aF0.10300016403198242
aF0.0989999771118164
aF0.13199996948242188
aF0.0989999771118164
aF0.13199996948242188
aF0.0989999771118164
aF0.13199996948242188
aF0.0989999771118164
aF0.13300013542175293
aF0.0989999771118164
aF0.0989999771118164
aF0.13199996948242188
aF0.10400009155273438
aF0.13199996948242188
aF0.0989999771118164
aF0.13199996948242188
aF0.10899996757507324
aF0.0989999771118164
aF0.13199996948242188
aF0.09900021553039551
aF0.14499998092651367
aF0.0989999771118164
aF0.0989999771118164
aF0.0989999771118164
aF0.15599989891052246
aF0.0989999771118164
aF0.09900021553039551
aF0.13199996948242188
aF0.0989999771118164
aF0.0989999771118164
aF0.13199996948242188
aF0.0989999771118164
aF0.13400006294250488
aF0.0989999771118164
aF0.13199996948242188
aF0.0989999771118164
aF0.13199996948242188
aF0.0989999771118164
aF0.0989999771118164
aF0.13200020790100098
aF0.0989999771118164
aF0.13199996948242188
aF0.0989999771118164
aF0.26399993896484375
aF0.1979999542236328
aF0.0989999771118164
aF0.06600022315979004
aF0.06599998474121094
aF0.06599998474121094
aF0.06599998474121094
aF0.0989999771118164
aF0.11100006103515625
aF0.0989999771118164
aF0.13199996948242188
aF0.0989999771118164
aF0.13199996948242188
aF0.0989999771118164
aF0.13199996948242188
aF0.0989999771118164
aF0.13900017738342285
aF0.0989999771118164
aF0.0989999771118164
aF0.13199996948242188
aF0.12400007247924805
aF0.0989999771118164
aF0.0989999771118164
aF0.13199996948242188
aF0.0989999771118164
aF0.13199996948242188
aF0.0989999771118164
aF0.13199996948242188
aF0.10800004005432129
aF0.0989999771118164
aF0.13199996948242188
aF0.09900021553039551
aF0.13399982452392578
aF0.0989999771118164
aF0.0989999771118164
aF0.13200020790100098
aF0.1119999885559082
aF0.0989999771118164
aF0.13199996948242188
aF0.0989999771118164
aF0.13199996948242188
aF0.0989999771118164
aF0.13199996948242188
aF0.0989999771118164
aF0.13700008392333984
aF0.0989999771118164
aF0.0989999771118164
aF0.13199996948242188
aF0.11400008201599121
aF0.0989999771118164
aF0.13199996948242188
aF0.0989999771118164
aF0.13199996948242188
aF0.06600022315979004
aF0.13199996948242188
aF0.13199996948242188
aF0.11599993705749512
aF0.0989999771118164
aF0.13199996948242188
aF0.0989999771118164
aF0.13199996948242188
aF0.09900021553039551
aF0.13399982452392578
aF0.0989999771118164
aF0.09900021553039551
aF0.13299989700317383
aF0.0989999771118164
aF0.13199996948242188
aF0.0989999771118164
aF0.13900017738342285
aF0.0989999771118164
aF0.0989999771118164
aF0.13199996948242188
aF0.0989999771118164
aF0.13199996948242188
aF0.0989999771118164
aF0.13199996948242188
aF0.0989999771118164
aF0.13200020790100098
aF0.0989999771118164
aF0.0989999771118164
aF0.13199996948242188
aF0.0989999771118164
aF0.13199996948242188
aF0.0989999771118164
aF0.14700007438659668
aF0.0989999771118164
aF0.0989999771118164
aF0.13199996948242188
aF0.0989999771118164
aF0.13199996948242188
aF0.0989999771118164
aF0.24400019645690918
aF0.1979999542236328
aF0.0989999771118164
aF0.06599998474121094
aF0.06800007820129395
aF0.06599998474121094
aF0.06599998474121094
aF0.0989999771118164
aF0.13199996948242188
aF0.10599994659423828
aF0.0989999771118164
aF0.13199996948242188
aF0.09900021553039551
aF0.13199996948242188
aF0.0989999771118164
aF0.13199996948242188
aF0.0989999771118164
aF0.11599993705749512
aF0.10000014305114746
aF0.13199996948242188
aF0.0989999771118164
aF0.13700008392333984
aF0.0989999771118164
aF0.13199996948242188
aF0.0989999771118164
aF0.0989999771118164
aF0.13199996948242188
aF0.0989999771118164
aF0.1510000228881836
aF0.0989999771118164
aF0.0989999771118164
aF0.13199996948242188
aF0.09900021553039551
aF0.0989999771118164
aF0.13199996948242188
aF0.0989999771118164
aF0.13199996948242188
aF0.0989999771118164
aF0.13199996948242188
aF0.0989999771118164
aF0.13400006294250488
aF0.0989999771118164
aF0.13199996948242188
aF0.0989999771118164
aF0.0989999771118164
aF0.13200020790100098
aF0.0989999771118164
aF0.13199996948242188
aF0.10099983215332031
aF0.13200020790100098
aF0.0989999771118164
aF0.13199996948242188
aF0.0989999771118164
aF0.0989999771118164
aF0.13199996948242188
aF0.0989999771118164
aF0.14300012588500977
aF0.0989999771118164
aF0.0989999771118164
aF0.13199996948242188
aF0.0989999771118164
aF0.13199996948242188
aF0.0989999771118164
aF0.13199996948242188
aF0.10800004005432129
aF0.0989999771118164
aF0.13200020790100098
aF0.0989999771118164
aF0.13199996948242188
aF0.0989999771118164
aF0.13199996948242188
aF0.0989999771118164
aF0.10199999809265137
aF0.13199996948242188
aF0.0989999771118164
aF0.13199996948242188
aF0.09900021553039551
aF0.13199996948242188
aF0.0989999771118164
aF0.13199996948242188
aF0.10199999809265137
aF0.0989999771118164
aF0.13199996948242188
aF0.0989999771118164
aF0.1490001678466797
aF0.0989999771118164
aF0.0989999771118164
aF0.13199996948242188
aF0.11500000953674316
aF0.0989999771118164
aF0.0989999771118164
aF0.13199996948242188
aF0.23600006103515625
aF0.1979999542236328
aF0.09999990463256836
aF0.06600022315979004
aF0.06599998474121094
aF0.06599998474121094
aF0.06599998474121094
aF0.13199996948242188
aF0.0989999771118164
aaaa(lp4
(lp5
I29
aaa(lp6
(lp7
I6333
aaa(lp8
(lp9
I3693200
aaa(lp10
(lp11
F12.310666666666666
aaa(lp12
(lp13
F29.018000000000004
aaa(lp14
(lp15
F0.2980000972747803
aaa(lp16
(lp17
F0.06599998474121094
aaa(lp18
(lp19
cnumpy.core.multiarray
scalar
p20
(cnumpy
dtype
p21
(S'f8'
p22
I0
I1
tp23
Rp24
(I3
S'<'
p25
NNNI-1
I-1
I0
tp26
bS'\xfa\xc4\xdf{\xc4\x17\xbd?'
p27
tp28
Rp29
aaa(lp30
(lp31
g20
(g24
S'\xb0\xa4\x80g\xa1\x01\x9b?'
p32
tp33
Rp34
aaa.