(lp0
(lp1
(lp2
(lp3
F0.06800007820129395
aF0.06799983978271484
aF0.0690000057220459
aF0.08899998664855957
aF0.06800007820129395
aF0.10100007057189941
aF0.06799983978271484
aF0.06800007820129395
aF0.06800007820129395
aF0.07200002670288086
aF0.06799983978271484
aF0.06800007820129395
aF0.06800007820129395
aF0.06799983978271484
aF0.06800007820129395
aF0.06800007820129395
aF0.0709998607635498
aF0.06800007820129395
aF0.10100007057189941
aF0.20099997520446777
aF0.23399996757507324
aF0.30299997329711914
aF0.16700005531311035
aF0.2369999885559082
aF0.20000004768371582
aF0.2329998016357422
aF0.2330000400543213
aF0.2330000400543213
aF0.2330000400543213
aF0.23399996757507324
aF0.20000004768371582
aF0.23399996757507324
aF0.23399996757507324
aF0.39800000190734863
aF0.20000004768371582
aF0.0690000057220459
aF0.2330000400543213
aF0.2330000400543213
aF0.2329998016357422
aF0.24200010299682617
aF0.20000004768371582
aF0.24600005149841309
aF0.23399996757507324
aF0.23399996757507324
aF0.20000004768371582
aF0.24300003051757812
aF0.2329998016357422
aF0.2330000400543213
aF0.20000004768371582
aF0.2330000400543213
aF0.23399996757507324
aF0.2330000400543213
aF0.23399996757507324
aF0.2330000400543213
aF0.20000004768371582
aF0.2329998016357422
aF0.2390000820159912
aF0.2330000400543213
aF0.2330000400543213
aF0.20000004768371582
aF0.2349998950958252
aF0.2330000400543213
aF0.23399996757507324
aF0.2369999885559082
aF0.21799993515014648
aF0.23600006103515625
aF0.20000004768371582
aF0.2330000400543213
aF0.2329998016357422
aF0.23400020599365234
aF0.2349998950958252
aF0.23399996757507324
aF0.20099997520446777
aF0.2330000400543213
aF0.2330000400543213
aF0.2330000400543213
aF0.2330000400543213
aF0.2329998016357422
aaaa(lp4
(lp5
I-1
aaa(lp6
(lp7
I368
aaa(lp8
(lp9
I110600
aaa(lp10
(lp11
F7.373333333333333
aaa(lp12
(lp13
F17.380000000000003
aaa(lp14
(lp15
F0.39800000190734863
aaa(lp16
(lp17
F0.06799983978271484
aaa(lp18
(lp19
cnumpy.core.multiarray
scalar
p20
(cnumpy
dtype
p21
(S'f8'
p22
I0
I1
tp23
Rp24
(I3
S'<'
p25
NNNI-1
I-1
I0
tp26
bS'UUUU\xdcT\xc8?'
p27
tp28
Rp29
aaa(lp30
(lp31
g20
(g24
S'\xb51T\xd1\xde\xcd\xb2?'
p32
tp33
Rp34
aaa.